target datalayout = "e-m:e-p270:32:32-p271:32:32-p272:64:64-i64:64-i128:128-f80:128-n8:16:32:64-S128"
target triple = "x86_64-pc-linux-gnu"

%struct.AVFormatContext = type { ptr, ptr, ptr, ptr, ptr, i32, i32, ptr, i32, ptr, i32, ptr, ptr, i64, i64, i64, i32, i32, i32, i64, i64, ptr, i32, i32, ptr, i32, i32, i32, i32, ptr, i64, i32, i32, %struct.AVIOInterruptCB, i32, i32, i32, i32, i64, i32, i32, i32, i32, i32, i32, i32, i32, i32, i32, i32, i32, i64, i32, i32, i32, i32, i32, ptr, ptr, ptr, ptr, i32, ptr, ptr, ptr, ptr, i32, ptr, ptr, i64, ptr, ptr, ptr, i64 }
%struct.AVIOInterruptCB = type { ptr, ptr }
%struct.AVStream = type { ptr, i32, i32, ptr, ptr, %struct.AVRational, i64, i64, i64, i32, i32, %struct.AVRational, ptr, %struct.AVRational, %struct.AVPacket, i32, %struct.AVRational, i32 }
%struct.AVPacket = type { ptr, i64, i64, ptr, i32, i32, i32, ptr, i32, i64, i64, ptr, ptr, %struct.AVRational }
%struct.AVRational = type { i32, i32 }
%struct.AVCodecParameters = type { i32, i32, i32, ptr, i32, ptr, i32, i32, i64, i32, i32, i32, i32, i32, i32, %struct.AVRational, %struct.AVRational, i32, i32, i32, i32, i32, i32, i32, %struct.AVChannelLayout, i32, i32, i32, i32, i32, i32 }
%struct.AVChannelLayout = type { i32, i32, %union.anon, ptr }
%union.anon = type { i64 }

@.str.4 = private unnamed_addr constant [8 x i8] c"Comment\00", align 1
@.str.5 = private unnamed_addr constant [20 x i8] c"Unsupported chunk!\0A\00", align 1

; Function Attrs: alwaysinline nounwind uwtable
define internal i64 @avio_tell(ptr noundef %0) #4 {
  %2 = alloca ptr, align 8
  store ptr %0, ptr %2, align 8, !tbaa !51
  %3 = load ptr, ptr %2, align 8, !tbaa !51
  %4 = call i64 @avio_seek(ptr noundef %3, i64 noundef 0, i32 noundef 1)
  ret i64 %4
}

; Function Attrs: nounwind uwtable
define internal i32 @nsp_read_header(ptr noundef %0) #0 {
  %2 = alloca i32, align 4
  %3 = alloca ptr, align 8
  %4 = alloca i32, align 4
  %5 = alloca i32, align 4
  %6 = alloca i32, align 4
  %7 = alloca i32, align 4
  %8 = alloca ptr, align 8
  %9 = alloca i64, align 8
  %10 = alloca i32, align 4
  %11 = alloca [1024 x i8], align 16
  store ptr %0, ptr %3, align 8, !tbaa !14
  call void @llvm.lifetime.start.p0(i64 4, ptr %4) #6
  store i32 0, ptr %4, align 4, !tbaa !16
  call void @llvm.lifetime.start.p0(i64 4, ptr %5) #6
  store i32 0, ptr %5, align 4, !tbaa !16
  call void @llvm.lifetime.start.p0(i64 4, ptr %6) #6
  call void @llvm.lifetime.start.p0(i64 4, ptr %7) #6
  call void @llvm.lifetime.start.p0(i64 8, ptr %8) #6
  call void @llvm.lifetime.start.p0(i64 8, ptr %9) #6
  %12 = load ptr, ptr %3, align 8, !tbaa !14
  %13 = getelementptr inbounds nuw %struct.AVFormatContext, ptr %12, i32 0, i32 4
  %14 = load ptr, ptr %13, align 8, !tbaa !17
  %15 = call i64 @avio_skip(ptr noundef %14, i64 noundef 12)
  %16 = load ptr, ptr %3, align 8, !tbaa !14
  %17 = call ptr @avformat_new_stream(ptr noundef %16, ptr noundef null)
  store ptr %17, ptr %8, align 8, !tbaa !32
  %18 = load ptr, ptr %8, align 8, !tbaa !32
  %19 = icmp ne ptr %18, null
  br i1 %19, label %21, label %20

20:                                               ; preds = %1
  store i32 -12, ptr %2, align 4
  store i32 1, ptr %10, align 4
  br label %125

21:                                               ; preds = %1
  br label %22

22:                                               ; preds = %98, %21
  %23 = load ptr, ptr %3, align 8, !tbaa !14
  %24 = getelementptr inbounds nuw %struct.AVFormatContext, ptr %23, i32 0, i32 4
  %25 = load ptr, ptr %24, align 8, !tbaa !17
  %26 = call i32 @avio_feof(ptr noundef %25)
  %27 = icmp ne i32 %26, 0
  %28 = xor i1 %27, true
  br i1 %28, label %29, label %99

29:                                               ; preds = %22
  call void @llvm.lifetime.start.p0(i64 1024, ptr %11) #6
  %30 = load ptr, ptr %3, align 8, !tbaa !14
  %31 = getelementptr inbounds nuw %struct.AVFormatContext, ptr %30, i32 0, i32 4
  %32 = load ptr, ptr %31, align 8, !tbaa !17
  %33 = call i32 @avio_rb32(ptr noundef %32)
  store i32 %33, ptr %6, align 4, !tbaa !16
  %34 = load ptr, ptr %3, align 8, !tbaa !14
  %35 = getelementptr inbounds nuw %struct.AVFormatContext, ptr %34, i32 0, i32 4
  %36 = load ptr, ptr %35, align 8, !tbaa !17
  %37 = call i32 @avio_rl32(ptr noundef %36)
  store i32 %37, ptr %7, align 4, !tbaa !16
  %38 = load ptr, ptr %3, align 8, !tbaa !14
  %39 = getelementptr inbounds nuw %struct.AVFormatContext, ptr %38, i32 0, i32 4
  %40 = load ptr, ptr %39, align 8, !tbaa !17
  %41 = call i64 @avio_tell(ptr noundef %40)
  store i64 %41, ptr %9, align 8, !tbaa !34
  %42 = load i32, ptr %6, align 4, !tbaa !16
  switch i32 %42, label %91 [
    i32 1212499026, label %43
    i32 1212437048, label %43
    i32 1313821765, label %69
    i32 1396982082, label %87
    i32 1396989746, label %88
    i32 1396989747, label %88
    i32 1396989748, label %88
    i32 1396989749, label %88
    i32 1396989750, label %88
    i32 1396989751, label %88
    i32 1396989752, label %88
    i32 1396982111, label %90
    i32 1396989761, label %90
  ]

43:                                               ; preds = %29, %29
  %44 = load i32, ptr %7, align 4, !tbaa !16
  %45 = icmp ult i32 %44, 32
  br i1 %45, label %46, label %47

46:                                               ; preds = %43
  store i32 -1094995529, ptr %2, align 4
  store i32 1, ptr %10, align 4
  br label %96

47:                                               ; preds = %43
  %48 = load ptr, ptr %3, align 8, !tbaa !14
  %49 = getelementptr inbounds nuw %struct.AVFormatContext, ptr %48, i32 0, i32 4
  %50 = load ptr, ptr %49, align 8, !tbaa !17
  %51 = call i64 @avio_skip(ptr noundef %50, i64 noundef 20)
  %52 = load ptr, ptr %3, align 8, !tbaa !14
  %53 = getelementptr inbounds nuw %struct.AVFormatContext, ptr %52, i32 0, i32 4
  %54 = load ptr, ptr %53, align 8, !tbaa !17
  %55 = call i32 @avio_rl32(ptr noundef %54)
  store i32 %55, ptr %5, align 4, !tbaa !16
  %56 = load ptr, ptr %3, align 8, !tbaa !14
  %57 = getelementptr inbounds nuw %struct.AVFormatContext, ptr %56, i32 0, i32 4
  %58 = load ptr, ptr %57, align 8, !tbaa !17
  %59 = load i32, ptr %7, align 4, !tbaa !16
  %60 = zext i32 %59 to i64
  %61 = load ptr, ptr %3, align 8, !tbaa !14
  %62 = getelementptr inbounds nuw %struct.AVFormatContext, ptr %61, i32 0, i32 4
  %63 = load ptr, ptr %62, align 8, !tbaa !17
  %64 = call i64 @avio_tell(ptr noundef %63)
  %65 = load i64, ptr %9, align 8, !tbaa !34
  %66 = sub nsw i64 %64, %65
  %67 = sub nsw i64 %60, %66
  %68 = call i64 @avio_skip(ptr noundef %58, i64 noundef %67)
  br label %91

69:                                               ; preds = %29
  %70 = load ptr, ptr %3, align 8, !tbaa !14
  %71 = getelementptr inbounds nuw %struct.AVFormatContext, ptr %70, i32 0, i32 4
  %72 = load ptr, ptr %71, align 8, !tbaa !17
  %73 = load i32, ptr %7, align 4, !tbaa !16
  %74 = getelementptr inbounds [1024 x i8], ptr %11, i64 0, i64 0
  %75 = call i32 @avio_get_str(ptr noundef %72, i32 noundef %73, ptr noundef %74, i32 noundef 1024)
  %76 = load ptr, ptr %3, align 8, !tbaa !14
  %77 = getelementptr inbounds nuw %struct.AVFormatContext, ptr %76, i32 0, i32 29
  %78 = getelementptr inbounds [1024 x i8], ptr %11, i64 0, i64 0
  %79 = call i32 @av_dict_set(ptr noundef %77, ptr noundef @.str.4, ptr noundef %78, i32 noundef 0)
  %80 = load ptr, ptr %3, align 8, !tbaa !14
  %81 = getelementptr inbounds nuw %struct.AVFormatContext, ptr %80, i32 0, i32 4
  %82 = load ptr, ptr %81, align 8, !tbaa !17
  %83 = load i32, ptr %7, align 4, !tbaa !16
  %84 = and i32 %83, 1
  %85 = zext i32 %84 to i64
  %86 = call i64 @avio_skip(ptr noundef %82, i64 noundef %85)
  br label %91

87:                                               ; preds = %29
  store i32 2, ptr %4, align 4, !tbaa !16
  br label %91

88:                                               ; preds = %29, %29, %29, %29, %29, %29, %29
  %89 = load ptr, ptr %3, align 8, !tbaa !14
  call void (ptr, i32, ptr, ...) @av_log(ptr noundef %89, i32 noundef 24, ptr noundef @.str.5)
  br label %90

90:                                               ; preds = %29, %29, %88
  store i32 1, ptr %4, align 4, !tbaa !16
  br label %91

91:                                               ; preds = %29, %90, %87, %69, %47
  %92 = load i32, ptr %4, align 4, !tbaa !16
  %93 = icmp ne i32 %92, 0
  br i1 %93, label %94, label %95

94:                                               ; preds = %91
  store i32 3, ptr %10, align 4
  br label %96

95:                                               ; preds = %91
  store i32 0, ptr %10, align 4
  br label %96

96:                                               ; preds = %95, %94, %46
  call void @llvm.lifetime.end.p0(i64 1024, ptr %11) #6
  %97 = load i32, ptr %10, align 4
  switch i32 %97, label %125 [
    i32 0, label %98
    i32 3, label %99
  ]

98:                                               ; preds = %96
  br label %22, !llvm.loop !35

99:                                               ; preds = %96, %22
  %100 = load ptr, ptr %8, align 8, !tbaa !32
  %101 = getelementptr inbounds nuw %struct.AVStream, ptr %100, i32 0, i32 3
  %102 = load ptr, ptr %101, align 8, !tbaa !37
  %103 = getelementptr inbounds nuw %struct.AVCodecParameters, ptr %102, i32 0, i32 0
  store i32 1, ptr %103, align 8, !tbaa !44
  %104 = load i32, ptr %4, align 4, !tbaa !16
  %105 = load ptr, ptr %8, align 8, !tbaa !32
  %106 = getelementptr inbounds nuw %struct.AVStream, ptr %105, i32 0, i32 3
  %107 = load ptr, ptr %106, align 8, !tbaa !37
  %108 = getelementptr inbounds nuw %struct.AVCodecParameters, ptr %107, i32 0, i32 24
  %109 = getelementptr inbounds nuw %struct.AVChannelLayout, ptr %108, i32 0, i32 1
  store i32 %104, ptr %109, align 4, !tbaa !47
  %110 = load i32, ptr %5, align 4, !tbaa !16
  %111 = load ptr, ptr %8, align 8, !tbaa !32
  %112 = getelementptr inbounds nuw %struct.AVStream, ptr %111, i32 0, i32 3
  %113 = load ptr, ptr %112, align 8, !tbaa !37
  %114 = getelementptr inbounds nuw %struct.AVCodecParameters, ptr %113, i32 0, i32 25
  store i32 %110, ptr %114, align 8, !tbaa !48
  %115 = load ptr, ptr %8, align 8, !tbaa !32
  %116 = getelementptr inbounds nuw %struct.AVStream, ptr %115, i32 0, i32 3
  %117 = load ptr, ptr %116, align 8, !tbaa !37
  %118 = getelementptr inbounds nuw %struct.AVCodecParameters, ptr %117, i32 0, i32 1
  store i32 65536, ptr %118, align 4, !tbaa !49
  %119 = load i32, ptr %4, align 4, !tbaa !16
  %120 = mul nsw i32 2, %119
  %121 = load ptr, ptr %8, align 8, !tbaa !32
  %122 = getelementptr inbounds nuw %struct.AVStream, ptr %121, i32 0, i32 3
  %123 = load ptr, ptr %122, align 8, !tbaa !37
  %124 = getelementptr inbounds nuw %struct.AVCodecParameters, ptr %123, i32 0, i32 26
  store i32 %120, ptr %124, align 4, !tbaa !50
  store i32 0, ptr %2, align 4
  store i32 1, ptr %10, align 4
  br label %125

125:                                              ; preds = %99, %96, %20
  call void @llvm.lifetime.end.p0(i64 8, ptr %9) #6
  call void @llvm.lifetime.end.p0(i64 8, ptr %8) #6
  call void @llvm.lifetime.end.p0(i64 4, ptr %7) #6
  call void @llvm.lifetime.end.p0(i64 4, ptr %6) #6
  call void @llvm.lifetime.end.p0(i64 4, ptr %5) #6
  call void @llvm.lifetime.end.p0(i64 4, ptr %4) #6
  %126 = load i32, ptr %2, align 4
  ret i32 %126
}