; Function Attrs: nounwind uwtable
define internal range(i32 -1094995529, 1) i32 @nsp_read_header(ptr noundef %0) #1 {
  %2 = alloca [1024 x i8], align 16
  %3 = getelementptr inbounds nuw i8, ptr %0, i64 32
  %4 = load ptr, ptr %3, align 8, !tbaa !12
  %5 = tail call i64 @avio_skip(ptr noundef %4, i64 noundef 12) #4
  %6 = tail call ptr @avformat_new_stream(ptr noundef %0, ptr noundef null) #4
  %.not = icmp eq ptr %6, null
  br i1 %.not, label %48, label %.preheader

.preheader:                                       ; preds = %1
  %7 = load ptr, ptr %3, align 8, !tbaa !12
  %8 = tail call i32 @avio_feof(ptr noundef %7) #4
  %.not4066 = icmp eq i32 %8, 0
  br i1 %.not4066, label %.lr.ph, label %.loopexit

.lr.ph:                                           ; preds = %.preheader
  %9 = getelementptr inbounds nuw i8, ptr %0, i64 192
  br label %10

10:                                               ; preds = %.lr.ph, %38
  %.03567 = phi i32 [ 0, %.lr.ph ], [ %.237, %38 ]
  call void @llvm.lifetime.start.p0(i64 1024, ptr nonnull %2) #4
  %11 = load ptr, ptr %3, align 8, !tbaa !12
  %12 = call i32 @avio_rb32(ptr noundef %11) #4
  %13 = load ptr, ptr %3, align 8, !tbaa !12
  %14 = call i32 @avio_rl32(ptr noundef %13) #4
  %15 = load ptr, ptr %3, align 8, !tbaa !12
  %16 = call i64 @avio_seek(ptr noundef %15, i64 noundef 0, i32 noundef 1) #4
  switch i32 %12, label %38 [
    i32 1212499026, label %17
    i32 1212437048, label %17
    i32 1313821765, label %29
    i32 1396982082, label %.thread49.loopexit
    i32 1396989746, label %37
    i32 1396989747, label %37
    i32 1396989748, label %37
    i32 1396989749, label %37
    i32 1396989750, label %37
    i32 1396989751, label %37
    i32 1396989752, label %37
    i32 1396982111, label %.thread49
    i32 1396989761, label %.thread49
  ]

17:                                               ; preds = %10, %10
  %18 = icmp ult i32 %14, 32
  br i1 %18, label %.thread53, label %19

.thread53:                                        ; preds = %17
  call void @llvm.lifetime.end.p0(i64 1024, ptr nonnull %2) #4
  br label %48

19:                                               ; preds = %17
  %20 = load ptr, ptr %3, align 8, !tbaa !12
  %21 = call i64 @avio_skip(ptr noundef %20, i64 noundef 20) #4
  %22 = load ptr, ptr %3, align 8, !tbaa !12
  %23 = call i32 @avio_rl32(ptr noundef %22) #4
  %24 = load ptr, ptr %3, align 8, !tbaa !12
  %25 = zext i32 %14 to i64
  %26 = call i64 @avio_seek(ptr noundef %24, i64 noundef 0, i32 noundef 1) #4
  %.neg = add i64 %16, %25
  %27 = sub i64 %.neg, %26
  %28 = call i64 @avio_skip(ptr noundef %24, i64 noundef %27) #4
  br label %38

29:                                               ; preds = %10
  %30 = load ptr, ptr %3, align 8, !tbaa !12
  %31 = call i32 @avio_get_str(ptr noundef %30, i32 noundef %14, ptr noundef nonnull %2, i32 noundef 1024) #4
  %32 = call i32 @av_dict_set(ptr noundef nonnull %9, ptr noundef nonnull @.str.4, ptr noundef nonnull %2, i32 noundef 0) #4
  %33 = load ptr, ptr %3, align 8, !tbaa !12
  %34 = and i32 %14, 1
  %35 = zext nneg i32 %34 to i64
  %36 = call i64 @avio_skip(ptr noundef %33, i64 noundef %35) #4
  br label %38

37:                                               ; preds = %10, %10, %10, %10, %10, %10, %10
  call void (ptr, i32, ptr, ...) @av_log(ptr noundef nonnull %0, i32 noundef 24, ptr noundef nonnull @.str.5) #4
  br label %.thread49

.thread49.loopexit:                               ; preds = %10
  br label %.thread49

.thread49:                                        ; preds = %10, %10, %.thread49.loopexit, %37
  %.3.ph = phi i32 [ 1, %37 ], [ 2, %.thread49.loopexit ], [ 1, %10 ], [ 1, %10 ]
  call void @llvm.lifetime.end.p0(i64 1024, ptr nonnull %2) #4
  br label %.loopexit

38:                                               ; preds = %10, %19, %29
  %.237 = phi i32 [ %.03567, %10 ], [ %.03567, %29 ], [ %23, %19 ]
  call void @llvm.lifetime.end.p0(i64 1024, ptr nonnull %2) #4
  %39 = load ptr, ptr %3, align 8, !tbaa !12
  %40 = call i32 @avio_feof(ptr noundef %39) #4
  %.not40 = icmp eq i32 %40, 0
  br i1 %.not40, label %10, label %.loopexit

.loopexit:                                        ; preds = %38, %.preheader, %.thread49
  %.03563 = phi i32 [ %.03567, %.thread49 ], [ 0, %.preheader ], [ %.237, %38 ]
  %.133 = phi i32 [ %.3.ph, %.thread49 ], [ 0, %.preheader ], [ 0, %38 ]
  %41 = getelementptr inbounds nuw i8, ptr %6, i64 16
  %42 = load ptr, ptr %41, align 8, !tbaa !27
  store i32 1, ptr %42, align 8, !tbaa !34
  %43 = getelementptr inbounds nuw i8, ptr %42, i64 132
  store i32 %.133, ptr %43, align 4, !tbaa !37
  %44 = getelementptr inbounds nuw i8, ptr %42, i64 152
  store i32 %.03563, ptr %44, align 8, !tbaa !38
  %45 = getelementptr inbounds nuw i8, ptr %42, i64 4
  store i32 65536, ptr %45, align 4, !tbaa !39
  %46 = shl nuw nsw i32 %.133, 1
  %47 = getelementptr inbounds nuw i8, ptr %42, i64 156
  store i32 %46, ptr %47, align 4, !tbaa !40
  br label %48

48:                                               ; preds = %.thread53, %1, %.loopexit
  %.031 = phi i32 [ 0, %.loopexit ], [ -12, %1 ], [ -1094995529, %.thread53 ]
  ret i32 %.031
}